	.file	"WebSocket.cpp"
	.section	.text._ZZN2uS4Poll5startEPNS_4LoopEPS0_iENUlP9uv_poll_siiE_4_FUNES5_ii,"axG",@progbits,_ZZN2uS4Poll5startEPNS_4LoopEPS0_iENKUlP9uv_poll_siiE_clES5_ii,comdat
	.p2align 4,,15
	.weak	_ZZN2uS4Poll5startEPNS_4LoopEPS0_iENUlP9uv_poll_siiE_4_FUNES5_ii
	.type	_ZZN2uS4Poll5startEPNS_4LoopEPS0_iENUlP9uv_poll_siiE_4_FUNES5_ii, @function
_ZZN2uS4Poll5startEPNS_4LoopEPS0_iENUlP9uv_poll_siiE_4_FUNES5_ii:
.LFB151:
	.cfi_startproc
	movq	(%rdi), %rdi
	jmp	*8(%rdi)
	.cfi_endproc
.LFE151:
	.size	_ZZN2uS4Poll5startEPNS_4LoopEPS0_iENUlP9uv_poll_siiE_4_FUNES5_ii, .-_ZZN2uS4Poll5startEPNS_4LoopEPS0_iENUlP9uv_poll_siiE_4_FUNES5_ii
	.section	.text._ZZN2uS4Poll5closeEPNS_4LoopEPFvPS0_EENUlP11uv_handle_sE_4_FUNES7_,"axG",@progbits,_ZZN2uS4Poll5closeEPNS_4LoopEPFvPS0_EENKUlP11uv_handle_sE_clES7_,comdat
	.p2align 4,,15
	.weak	_ZZN2uS4Poll5closeEPNS_4LoopEPFvPS0_EENUlP11uv_handle_sE_4_FUNES7_
	.type	_ZZN2uS4Poll5closeEPNS_4LoopEPFvPS0_EENUlP11uv_handle_sE_4_FUNES7_, @function
_ZZN2uS4Poll5closeEPNS_4LoopEPFvPS0_EENUlP11uv_handle_sE_4_FUNES7_:
.LFB159:
	.cfi_startproc
	movq	(%rdi), %rdi
	jmp	*8(%rdi)
	.cfi_endproc
.LFE159:
	.size	_ZZN2uS4Poll5closeEPNS_4LoopEPFvPS0_EENUlP11uv_handle_sE_4_FUNES7_, .-_ZZN2uS4Poll5closeEPNS_4LoopEPFvPS0_EENUlP11uv_handle_sE_4_FUNES7_
	.section	.text._ZZN2uS5Timer5closeEvENUlP11uv_handle_sE_4_FUNES2_,"axG",@progbits,_ZZN2uS5Timer5closeEvENKUlP11uv_handle_sE_clES2_,comdat
	.p2align 4,,15
	.weak	_ZZN2uS5Timer5closeEvENUlP11uv_handle_sE_4_FUNES2_
	.type	_ZZN2uS5Timer5closeEvENUlP11uv_handle_sE_4_FUNES2_, @function
_ZZN2uS5Timer5closeEvENUlP11uv_handle_sE_4_FUNES2_:
.LFB130:
	.cfi_startproc
	testq	%rdi, %rdi
	je	.L4
	jmp	_ZdlPv@PLT
	.p2align 4,,10
	.p2align 3
.L4:
	rep ret
	.cfi_endproc
.LFE130:
	.size	_ZZN2uS5Timer5closeEvENUlP11uv_handle_sE_4_FUNES2_, .-_ZZN2uS5Timer5closeEvENUlP11uv_handle_sE_4_FUNES2_
	.section	.text._ZZN2uS6Socket11closeSocketIN3uWS9WebSocketILb1EEEEEvvENUlPNS_4PollEE_4_FUNES6_,"axG",@progbits,_ZZN2uS6Socket11closeSocketIN3uWS9WebSocketILb1EEEEEvvENKUlPNS_4PollEE_clES6_,comdat
	.p2align 4,,15
	.weak	_ZZN2uS6Socket11closeSocketIN3uWS9WebSocketILb1EEEEEvvENUlPNS_4PollEE_4_FUNES6_
	.type	_ZZN2uS6Socket11closeSocketIN3uWS9WebSocketILb1EEEEEvvENUlPNS_4PollEE_4_FUNES6_, @function
_ZZN2uS6Socket11closeSocketIN3uWS9WebSocketILb1EEEEEvvENUlPNS_4PollEE_4_FUNES6_:
.LFB4108:
	.cfi_startproc
	testq	%rdi, %rdi
	je	.L6
	pushq	%rbx
	.cfi_def_cfa_offset 16
	.cfi_offset 3, -16
	movq	%rdi, %rbx
	movq	104(%rdi), %rdi
	leaq	120(%rbx), %rax
	cmpq	%rax, %rdi
	je	.L8
	call	_ZdlPv@PLT
.L8:
	movq	(%rbx), %rdi
	call	_ZdlPv@PLT
	movq	%rbx, %rdi
	popq	%rbx
	.cfi_restore 3
	.cfi_def_cfa_offset 8
	jmp	_ZdlPv@PLT
	.p2align 4,,10
	.p2align 3
.L6:
	rep ret
	.cfi_endproc
.LFE4108:
	.size	_ZZN2uS6Socket11closeSocketIN3uWS9WebSocketILb1EEEEEvvENUlPNS_4PollEE_4_FUNES6_, .-_ZZN2uS6Socket11closeSocketIN3uWS9WebSocketILb1EEEEEvvENUlPNS_4PollEE_4_FUNES6_
	.section	.text._ZZN2uS6Socket11closeSocketIN3uWS9WebSocketILb0EEEEEvvENUlPNS_4PollEE_4_FUNES6_,"axG",@progbits,_ZZN2uS6Socket11closeSocketIN3uWS9WebSocketILb0EEEEEvvENKUlPNS_4PollEE_clES6_,comdat
	.p2align 4,,15
	.weak	_ZZN2uS6Socket11closeSocketIN3uWS9WebSocketILb0EEEEEvvENUlPNS_4PollEE_4_FUNES6_
	.type	_ZZN2uS6Socket11closeSocketIN3uWS9WebSocketILb0EEEEEvvENUlPNS_4PollEE_4_FUNES6_, @function
_ZZN2uS6Socket11closeSocketIN3uWS9WebSocketILb0EEEEEvvENUlPNS_4PollEE_4_FUNES6_:
.LFB4141:
	.cfi_startproc
	testq	%rdi, %rdi
	je	.L12
	pushq	%rbx
	.cfi_def_cfa_offset 16
	.cfi_offset 3, -16
	movq	%rdi, %rbx
	movq	104(%rdi), %rdi
	leaq	120(%rbx), %rax
	cmpq	%rax, %rdi
	je	.L14
	call	_ZdlPv@PLT
.L14:
	movq	(%rbx), %rdi
	call	_ZdlPv@PLT
	movq	%rbx, %rdi
	popq	%rbx
	.cfi_restore 3
	.cfi_def_cfa_offset 8
	jmp	_ZdlPv@PLT
	.p2align 4,,10
	.p2align 3
.L12:
	rep ret
	.cfi_endproc
.LFE4141:
	.size	_ZZN2uS6Socket11closeSocketIN3uWS9WebSocketILb0EEEEEvvENUlPNS_4PollEE_4_FUNES6_, .-_ZZN2uS6Socket11closeSocketIN3uWS9WebSocketILb0EEEEEvvENUlPNS_4PollEE_4_FUNES6_
	.section	.text._ZZN3uWS9WebSocketILb0EE5closeEiPKcmENUlPS1_PvbS5_E_4_FUNES4_S5_bS5_,"axG",@progbits,_ZZN3uWS9WebSocketILb0EE5closeEiPKcmENKUlPS1_PvbS5_E_clES4_S5_bS5_,comdat
	.p2align 4,,15
	.weak	_ZZN3uWS9WebSocketILb0EE5closeEiPKcmENUlPS1_PvbS5_E_4_FUNES4_S5_bS5_
	.type	_ZZN3uWS9WebSocketILb0EE5closeEiPKcmENUlPS1_PvbS5_E_4_FUNES4_S5_bS5_, @function
_ZZN3uWS9WebSocketILb0EE5closeEiPKcmENUlPS1_PvbS5_E_4_FUNES4_S5_bS5_:
.LFB3976:
	.cfi_startproc
	testb	%dl, %dl
	je	.L21
	rep ret
	.p2align 4,,10
	.p2align 3
.L21:
	movq	24(%rdi), %rax
	testq	%rax, %rax
	je	.L20
	movq	%rax, %rdi
	jmp	SSL_shutdown@PLT
	.p2align 4,,10
	.p2align 3
.L20:
	movq	(%rdi), %rax
	movl	$1, %esi
	movl	152(%rax), %edi
	jmp	shutdown@PLT
	.cfi_endproc
.LFE3976:
	.size	_ZZN3uWS9WebSocketILb0EE5closeEiPKcmENUlPS1_PvbS5_E_4_FUNES4_S5_bS5_, .-_ZZN3uWS9WebSocketILb0EE5closeEiPKcmENUlPS1_PvbS5_E_4_FUNES4_S5_bS5_
	.section	.text._ZZN3uWS9WebSocketILb0EE8transferEPNS_5GroupILb0EEEENUlPN2uS4PollEE_4_FUNES7_,"axG",@progbits,_ZZN3uWS9WebSocketILb0EE8transferEPNS_5GroupILb0EEEENKUlPN2uS4PollEE_clES7_,comdat
	.p2align 4,,15
	.weak	_ZZN3uWS9WebSocketILb0EE8transferEPNS_5GroupILb0EEEENUlPN2uS4PollEE_4_FUNES7_
	.type	_ZZN3uWS9WebSocketILb0EE8transferEPNS_5GroupILb0EEEENUlPN2uS4PollEE_4_FUNES7_, @function
_ZZN3uWS9WebSocketILb0EE8transferEPNS_5GroupILb0EEEENUlPN2uS4PollEE_4_FUNES7_:
.LFB3980:
	.cfi_startproc
	pushq	%rbx
	.cfi_def_cfa_offset 16
	.cfi_offset 3, -16
	movq	%rdi, %rbx
	movq	%rbx, %rsi
	subq	$16, %rsp
	.cfi_def_cfa_offset 32
	movq	40(%rdi), %rdi
	movq	%fs:40, %rax
	movq	%rax, 8(%rsp)
	xorl	%eax, %eax
	call	_ZN3uWS5GroupILb0EE12addWebSocketEPNS_9WebSocketILb0EEE@PLT
	movq	40(%rbx), %rax
	movq	%rbx, (%rsp)
	cmpq	$0, 184(%rax)
	je	.L26
	leaq	168(%rax), %rdi
	movq	%rsp, %rsi
	call	*192(%rax)
	movq	8(%rsp), %rax
	xorq	%fs:40, %rax
	jne	.L27
	addq	$16, %rsp
	.cfi_remember_state
	.cfi_def_cfa_offset 16
	popq	%rbx
	.cfi_def_cfa_offset 8
	ret
.L26:
	.cfi_restore_state
	call	_ZSt25__throw_bad_function_callv@PLT
.L27:
	call	__stack_chk_fail@PLT
	.cfi_endproc
.LFE3980:
	.size	_ZZN3uWS9WebSocketILb0EE8transferEPNS_5GroupILb0EEEENUlPN2uS4PollEE_4_FUNES7_, .-_ZZN3uWS9WebSocketILb0EE8transferEPNS_5GroupILb0EEEENUlPN2uS4PollEE_4_FUNES7_
	.section	.text._ZZN3uWS9WebSocketILb1EE8transferEPNS_5GroupILb1EEEENUlPN2uS4PollEE_4_FUNES7_,"axG",@progbits,_ZZN3uWS9WebSocketILb1EE8transferEPNS_5GroupILb1EEEENKUlPN2uS4PollEE_clES7_,comdat
	.p2align 4,,15
	.weak	_ZZN3uWS9WebSocketILb1EE8transferEPNS_5GroupILb1EEEENUlPN2uS4PollEE_4_FUNES7_
	.type	_ZZN3uWS9WebSocketILb1EE8transferEPNS_5GroupILb1EEEENUlPN2uS4PollEE_4_FUNES7_, @function
_ZZN3uWS9WebSocketILb1EE8transferEPNS_5GroupILb1EEEENUlPN2uS4PollEE_4_FUNES7_:
.LFB3947:
	.cfi_startproc
	pushq	%rbx
	.cfi_def_cfa_offset 16
	.cfi_offset 3, -16
	movq	%rdi, %rbx
	movq	%rbx, %rsi
	subq	$16, %rsp
	.cfi_def_cfa_offset 32
	movq	40(%rdi), %rdi
	movq	%fs:40, %rax
	movq	%rax, 8(%rsp)
	xorl	%eax, %eax
	call	_ZN3uWS5GroupILb1EE12addWebSocketEPNS_9WebSocketILb1EEE@PLT
	movq	40(%rbx), %rax
	movq	%rbx, (%rsp)
	cmpq	$0, 184(%rax)
	je	.L32
	leaq	168(%rax), %rdi
	movq	%rsp, %rsi
	call	*192(%rax)
	movq	8(%rsp), %rax
	xorq	%fs:40, %rax
	jne	.L33
	addq	$16, %rsp
	.cfi_remember_state
	.cfi_def_cfa_offset 16
	popq	%rbx
	.cfi_def_cfa_offset 8
	ret
.L32:
	.cfi_restore_state
	call	_ZSt25__throw_bad_function_callv@PLT
.L33:
	call	__stack_chk_fail@PLT
	.cfi_endproc
.LFE3947:
	.size	_ZZN3uWS9WebSocketILb1EE8transferEPNS_5GroupILb1EEEENUlPN2uS4PollEE_4_FUNES7_, .-_ZZN3uWS9WebSocketILb1EE8transferEPNS_5GroupILb1EEEENUlPN2uS4PollEE_4_FUNES7_
	.section	.text._ZZN3uWS9WebSocketILb0EE12sendPreparedEPNS1_15PreparedMessageEPvENUlS4_S4_bS4_E_4_FUNES4_S4_bS4_,"axG",@progbits,_ZZN3uWS9WebSocketILb0EE12sendPreparedEPNS1_15PreparedMessageEPvENKUlS4_S4_bS4_E_clES4_S4_bS4_,comdat
	.p2align 4,,15
	.weak	_ZZN3uWS9WebSocketILb0EE12sendPreparedEPNS1_15PreparedMessageEPvENUlS4_S4_bS4_E_4_FUNES4_S4_bS4_
	.type	_ZZN3uWS9WebSocketILb0EE12sendPreparedEPNS1_15PreparedMessageEPvENUlS4_S4_bS4_E_4_FUNES4_S4_bS4_, @function
_ZZN3uWS9WebSocketILb0EE12sendPreparedEPNS1_15PreparedMessageEPvENUlS4_S4_bS4_E_4_FUNES4_S4_bS4_:
.LFB3971:
	.cfi_startproc
	pushq	%rbp
	.cfi_def_cfa_offset 16
	.cfi_offset 6, -16
	pushq	%rbx
	.cfi_def_cfa_offset 24
	.cfi_offset 3, -24
	movq	%rsi, %rbp
	movq	%rcx, %rsi
	subq	$8, %rsp
	.cfi_def_cfa_offset 32
	movl	16(%rbp), %eax
	leal	-1(%rax), %ebx
	movq	24(%rbp), %rax
	testl	%ebx, %ebx
	movl	%ebx, 16(%rbp)
	sete	%cl
	testq	%rax, %rax
	je	.L35
	movzbl	%cl, %ecx
	movzbl	%dl, %edx
	call	*%rax
.L35:
	testl	%ebx, %ebx
	jne	.L34
	movq	0(%rbp), %rdi
	testq	%rdi, %rdi
	je	.L37
	call	_ZdaPv@PLT
.L37:
	addq	$8, %rsp
	.cfi_remember_state
	.cfi_def_cfa_offset 24
	movq	%rbp, %rdi
	popq	%rbx
	.cfi_def_cfa_offset 16
	popq	%rbp
	.cfi_def_cfa_offset 8
	jmp	_ZdlPv@PLT
	.p2align 4,,10
	.p2align 3
.L34:
	.cfi_restore_state
	addq	$8, %rsp
	.cfi_def_cfa_offset 24
	popq	%rbx
	.cfi_def_cfa_offset 16
	popq	%rbp
	.cfi_def_cfa_offset 8
	ret
	.cfi_endproc
.LFE3971:
	.size	_ZZN3uWS9WebSocketILb0EE12sendPreparedEPNS1_15PreparedMessageEPvENUlS4_S4_bS4_E_4_FUNES4_S4_bS4_, .-_ZZN3uWS9WebSocketILb0EE12sendPreparedEPNS1_15PreparedMessageEPvENUlS4_S4_bS4_E_4_FUNES4_S4_bS4_
	.section	.text._ZZN3uWS9WebSocketILb1EE12sendPreparedEPNS1_15PreparedMessageEPvENUlS4_S4_bS4_E_4_FUNES4_S4_bS4_,"axG",@progbits,_ZZN3uWS9WebSocketILb1EE12sendPreparedEPNS1_15PreparedMessageEPvENKUlS4_S4_bS4_E_clES4_S4_bS4_,comdat
	.p2align 4,,15
	.weak	_ZZN3uWS9WebSocketILb1EE12sendPreparedEPNS1_15PreparedMessageEPvENUlS4_S4_bS4_E_4_FUNES4_S4_bS4_
	.type	_ZZN3uWS9WebSocketILb1EE12sendPreparedEPNS1_15PreparedMessageEPvENUlS4_S4_bS4_E_4_FUNES4_S4_bS4_, @function
_ZZN3uWS9WebSocketILb1EE12sendPreparedEPNS1_15PreparedMessageEPvENUlS4_S4_bS4_E_4_FUNES4_S4_bS4_:
.LFB3938:
	.cfi_startproc
	pushq	%rbp
	.cfi_def_cfa_offset 16
	.cfi_offset 6, -16
	pushq	%rbx
	.cfi_def_cfa_offset 24
	.cfi_offset 3, -24
	movq	%rsi, %rbp
	movq	%rcx, %rsi
	subq	$8, %rsp
	.cfi_def_cfa_offset 32
	movl	16(%rbp), %eax
	leal	-1(%rax), %ebx
	movq	24(%rbp), %rax
	testl	%ebx, %ebx
	movl	%ebx, 16(%rbp)
	sete	%cl
	testq	%rax, %rax
	je	.L46
	movzbl	%cl, %ecx
	movzbl	%dl, %edx
	call	*%rax
.L46:
	testl	%ebx, %ebx
	jne	.L45
	movq	0(%rbp), %rdi
	testq	%rdi, %rdi
	je	.L48
	call	_ZdaPv@PLT
.L48:
	addq	$8, %rsp
	.cfi_remember_state
	.cfi_def_cfa_offset 24
	movq	%rbp, %rdi
	popq	%rbx
	.cfi_def_cfa_offset 16
	popq	%rbp
	.cfi_def_cfa_offset 8
	jmp	_ZdlPv@PLT
	.p2align 4,,10
	.p2align 3
.L45:
	.cfi_restore_state
	addq	$8, %rsp
	.cfi_def_cfa_offset 24
	popq	%rbx
	.cfi_def_cfa_offset 16
	popq	%rbp
	.cfi_def_cfa_offset 8
	ret
	.cfi_endproc
.LFE3938:
	.size	_ZZN3uWS9WebSocketILb1EE12sendPreparedEPNS1_15PreparedMessageEPvENUlS4_S4_bS4_E_4_FUNES4_S4_bS4_, .-_ZZN3uWS9WebSocketILb1EE12sendPreparedEPNS1_15PreparedMessageEPvENUlS4_S4_bS4_E_4_FUNES4_S4_bS4_
	.section	.text._ZZN3uWS9WebSocketILb1EE5closeEiPKcmENUlPS1_PvbS5_E_4_FUNES4_S5_bS5_,"axG",@progbits,_ZZN3uWS9WebSocketILb1EE5closeEiPKcmENKUlPS1_PvbS5_E_clES4_S5_bS5_,comdat
	.p2align 4,,15
	.weak	_ZZN3uWS9WebSocketILb1EE5closeEiPKcmENUlPS1_PvbS5_E_4_FUNES4_S5_bS5_
	.type	_ZZN3uWS9WebSocketILb1EE5closeEiPKcmENUlPS1_PvbS5_E_4_FUNES4_S5_bS5_, @function
_ZZN3uWS9WebSocketILb1EE5closeEiPKcmENUlPS1_PvbS5_E_4_FUNES4_S5_bS5_:
.LFB3943:
	.cfi_startproc
	testb	%dl, %dl
	je	.L59
	rep ret
	.p2align 4,,10
	.p2align 3
.L59:
	movq	24(%rdi), %rax
	testq	%rax, %rax
	je	.L58
	movq	%rax, %rdi
	jmp	SSL_shutdown@PLT
	.p2align 4,,10
	.p2align 3
.L58:
	movq	(%rdi), %rax
	movl	$1, %esi
	movl	152(%rax), %edi
	jmp	shutdown@PLT
	.cfi_endproc
.LFE3943:
	.size	_ZZN3uWS9WebSocketILb1EE5closeEiPKcmENUlPS1_PvbS5_E_4_FUNES4_S5_bS5_, .-_ZZN3uWS9WebSocketILb1EE5closeEiPKcmENUlPS1_PvbS5_E_4_FUNES4_S5_bS5_
	.section	.text._ZZN2uS6Socket8transferEPNS_8NodeDataEPFvPNS_4PollEEENUlS4_E_4_FUNES4_,"axG",@progbits,_ZZN2uS6Socket8transferEPNS_8NodeDataEPFvPNS_4PollEEENKUlS4_E_clES4_,comdat
	.p2align 4,,15
	.weak	_ZZN2uS6Socket8transferEPNS_8NodeDataEPFvPNS_4PollEEENUlS4_E_4_FUNES4_
	.type	_ZZN2uS6Socket8transferEPNS_8NodeDataEPFvPNS_4PollEEENUlS4_E_4_FUNES4_, @function
_ZZN2uS6Socket8transferEPNS_8NodeDataEPFvPNS_4PollEEENUlS4_E_4_FUNES4_:
.LFB2930:
	.cfi_startproc
	pushq	%r15
	.cfi_def_cfa_offset 16
	.cfi_offset 15, -16
	pushq	%r14
	.cfi_def_cfa_offset 24
	.cfi_offset 14, -24
	movq	%rdi, %r15
	pushq	%r13
	.cfi_def_cfa_offset 32
	.cfi_offset 13, -32
	pushq	%r12
	.cfi_def_cfa_offset 40
	.cfi_offset 12, -40
	pushq	%rbp
	.cfi_def_cfa_offset 48
	.cfi_offset 6, -48
	pushq	%rbx
	.cfi_def_cfa_offset 56
	.cfi_offset 3, -56
	subq	$40, %rsp
	.cfi_def_cfa_offset 96
	movq	_ZL28__gthrw___pthread_key_createPjPFvPvE@GOTPCREL(%rip), %r12
	movq	32(%rdi), %r13
	testq	%r12, %r12
	movq	40(%r13), %rbx
	je	.L61
	movq	80(%rbx), %rdi
	call	_ZL26__gthrw_pthread_mutex_lockP15pthread_mutex_t@PLT
	testl	%eax, %eax
	jne	.L62
	movq	40(%r13), %rbx
.L61:
	movq	96(%rbx), %rbp
	cmpq	104(%rbx), %rbp
	movq	88(%rbx), %r14
	je	.L63
	testq	%rbp, %rbp
	je	.L64
	movq	%r15, 0(%rbp)
.L64:
	leaq	8(%rbp), %rax
	movq	%rax, 96(%rbx)
.L65:
	testq	%r12, %r12
	je	.L72
	movq	80(%rbx), %rdi
	call	_ZL28__gthrw_pthread_mutex_unlockP15pthread_mutex_t@PLT
.L72:
	cmpq	%r14, %rbp
	je	.L95
	addq	$40, %rsp
	.cfi_remember_state
	.cfi_def_cfa_offset 56
	popq	%rbx
	.cfi_def_cfa_offset 48
	popq	%rbp
	.cfi_def_cfa_offset 40
	popq	%r12
	.cfi_def_cfa_offset 32
	popq	%r13
	.cfi_def_cfa_offset 24
	popq	%r14
	.cfi_def_cfa_offset 16
	popq	%r15
	.cfi_def_cfa_offset 8
	ret
	.p2align 4,,10
	.p2align 3
.L95:
	.cfi_restore_state
	movq	40(%r13), %rax
	movq	64(%rax), %rdi
	addq	$40, %rsp
	.cfi_remember_state
	.cfi_def_cfa_offset 56
	popq	%rbx
	.cfi_def_cfa_offset 48
	popq	%rbp
	.cfi_def_cfa_offset 40
	popq	%r12
	.cfi_def_cfa_offset 32
	popq	%r13
	.cfi_def_cfa_offset 24
	popq	%r14
	.cfi_def_cfa_offset 16
	popq	%r15
	.cfi_def_cfa_offset 8
	jmp	uv_async_send@PLT
	.p2align 4,,10
	.p2align 3
.L63:
	.cfi_restore_state
	movq	%rbp, %rsi
	subq	%r14, %rsi
	movq	%rsi, %rax
	sarq	$3, %rax
	testq	%rax, %rax
	je	.L74
	leaq	(%rax,%rax), %rdx
	cmpq	%rdx, %rax
	movq	%rdx, 8(%rsp)
	jbe	.L96
.L76:
	movq	$-8, 8(%rsp)
	movq	8(%rsp), %rdi
.L66:
	movq	%rsi, 16(%rsp)
	call	_Znwm@PLT
	movq	16(%rsp), %rsi
	movq	%rax, %rcx
.L67:
	addq	%rcx, %rsi
	je	.L68
	movq	%r15, (%rsi)
.L68:
	movq	88(%rbx), %rsi
	movq	%rbp, %r8
	subq	%rsi, %r8
	cmpq	%rbp, %rsi
	je	.L69
	movq	%r8, %rdx
	movq	%rcx, %rdi
	movq	%r8, 16(%rsp)
	call	memmove@PLT
	movq	16(%rsp), %r8
	movq	%rax, %rcx
.L69:
	movq	96(%rbx), %rax
	leaq	8(%rcx,%r8), %r8
	movq	%rax, %r9
	subq	%rbp, %r9
	cmpq	%rbp, %rax
	je	.L70
	movq	%r9, %rdx
	movq	%r8, %rdi
	movq	%rbp, %rsi
	movq	%rcx, 24(%rsp)
	movq	%r9, 16(%rsp)
	call	memmove@PLT
	movq	24(%rsp), %rcx
	movq	16(%rsp), %r9
	movq	%rax, %r8
.L70:
	movq	88(%rbx), %rdi
	addq	%r9, %r8
	testq	%rdi, %rdi
	je	.L71
	movq	%rcx, 24(%rsp)
	movq	%r8, 16(%rsp)
	call	_ZdlPv@PLT
	movq	24(%rsp), %rcx
	movq	16(%rsp), %r8
.L71:
	movq	8(%rsp), %r15
	movq	%rcx, 88(%rbx)
	movq	%r8, 96(%rbx)
	addq	%rcx, %r15
	movq	%r15, 104(%rbx)
	movq	40(%r13), %rbx
	jmp	.L65
	.p2align 4,,10
	.p2align 3
.L74:
	movq	$8, 8(%rsp)
	movq	8(%rsp), %rdi
	jmp	.L66
	.p2align 4,,10
	.p2align 3
.L96:
	movabsq	$2305843009213693951, %rcx
	cmpq	%rcx, %rdx
	ja	.L76
	xorl	%ecx, %ecx
	testq	%rdx, %rdx
	je	.L67
	salq	$4, %rax
	movq	%rax, 8(%rsp)
	movq	%rax, %rdi
	jmp	.L66
.L62:
	movl	%eax, %edi
	call	_ZSt20__throw_system_errori@PLT
	.cfi_endproc
.LFE2930:
	.size	_ZZN2uS6Socket8transferEPNS_8NodeDataEPFvPNS_4PollEEENUlS4_E_4_FUNES4_, .-_ZZN2uS6Socket8transferEPNS_8NodeDataEPFvPNS_4PollEEENUlS4_E_4_FUNES4_
	.section	.text._ZZN2uS5Timer5closeEvENKUlP11uv_handle_sE_clES2_,"axG",@progbits,_ZZN2uS5Timer5closeEvENKUlP11uv_handle_sE_clES2_,comdat
	.align 2
	.p2align 4,,15
	.weak	_ZZN2uS5Timer5closeEvENKUlP11uv_handle_sE_clES2_
	.type	_ZZN2uS5Timer5closeEvENKUlP11uv_handle_sE_clES2_, @function
_ZZN2uS5Timer5closeEvENKUlP11uv_handle_sE_clES2_:
.LFB129:
	.cfi_startproc
	testq	%rsi, %rsi
	je	.L97
	movq	%rsi, %rdi
	jmp	_ZdlPv@PLT
	.p2align 4,,10
	.p2align 3
.L97:
	rep ret
	.cfi_endproc
.LFE129:
	.size	_ZZN2uS5Timer5closeEvENKUlP11uv_handle_sE_clES2_, .-_ZZN2uS5Timer5closeEvENKUlP11uv_handle_sE_clES2_
	.section	.text._ZZN2uS4Poll5startEPNS_4LoopEPS0_iENKUlP9uv_poll_siiE_clES5_ii,"axG",@progbits,_ZZN2uS4Poll5startEPNS_4LoopEPS0_iENKUlP9uv_poll_siiE_clES5_ii,comdat
	.align 2
	.p2align 4,,15
	.weak	_ZZN2uS4Poll5startEPNS_4LoopEPS0_iENKUlP9uv_poll_siiE_clES5_ii
	.type	_ZZN2uS4Poll5startEPNS_4LoopEPS0_iENKUlP9uv_poll_siiE_clES5_ii, @function
_ZZN2uS4Poll5startEPNS_4LoopEPS0_iENKUlP9uv_poll_siiE_clES5_ii:
.LFB150:
	.cfi_startproc
	movq	(%rsi), %rdi
	movl	%edx, %r8d
	movl	%ecx, %edx
	movl	%r8d, %esi
	movq	8(%rdi), %rax
	jmp	*%rax
	.cfi_endproc
.LFE150:
	.size	_ZZN2uS4Poll5startEPNS_4LoopEPS0_iENKUlP9uv_poll_siiE_clES5_ii, .-_ZZN2uS4Poll5startEPNS_4LoopEPS0_iENKUlP9uv_poll_siiE_clES5_ii
	.section	.text._ZZN2uS4Poll5closeEPNS_4LoopEPFvPS0_EENKUlP11uv_handle_sE_clES7_,"axG",@progbits,_ZZN2uS4Poll5closeEPNS_4LoopEPFvPS0_EENKUlP11uv_handle_sE_clES7_,comdat
	.align 2
	.p2align 4,,15
	.weak	_ZZN2uS4Poll5closeEPNS_4LoopEPFvPS0_EENKUlP11uv_handle_sE_clES7_
	.type	_ZZN2uS4Poll5closeEPNS_4LoopEPFvPS0_EENKUlP11uv_handle_sE_clES7_, @function
_ZZN2uS4Poll5closeEPNS_4LoopEPFvPS0_EENKUlP11uv_handle_sE_clES7_:
.LFB158:
	.cfi_startproc
	movq	(%rsi), %rdi
	jmp	*8(%rdi)
	.cfi_endproc
.LFE158:
	.size	_ZZN2uS4Poll5closeEPNS_4LoopEPFvPS0_EENKUlP11uv_handle_sE_clES7_, .-_ZZN2uS4Poll5closeEPNS_4LoopEPFvPS0_EENKUlP11uv_handle_sE_clES7_
	.section	.text._ZZN2uS6Socket8transferEPNS_8NodeDataEPFvPNS_4PollEEENKUlS4_E_clES4_,"axG",@progbits,_ZZN2uS6Socket8transferEPNS_8NodeDataEPFvPNS_4PollEEENKUlS4_E_clES4_,comdat
	.align 2
	.p2align 4,,15
	.weak	_ZZN2uS6Socket8transferEPNS_8NodeDataEPFvPNS_4PollEEENKUlS4_E_clES4_
	.type	_ZZN2uS6Socket8transferEPNS_8NodeDataEPFvPNS_4PollEEENKUlS4_E_clES4_, @function
_ZZN2uS6Socket8transferEPNS_8NodeDataEPFvPNS_4PollEEENKUlS4_E_clES4_:
.LFB2929:
	.cfi_startproc
	pushq	%r15
	.cfi_def_cfa_offset 16
	.cfi_offset 15, -16
	pushq	%r14
	.cfi_def_cfa_offset 24
	.cfi_offset 14, -24
	movq	%rsi, %r15
	pushq	%r13
	.cfi_def_cfa_offset 32
	.cfi_offset 13, -32
	pushq	%r12
	.cfi_def_cfa_offset 40
	.cfi_offset 12, -40
	pushq	%rbp
	.cfi_def_cfa_offset 48
	.cfi_offset 6, -48
	pushq	%rbx
	.cfi_def_cfa_offset 56
	.cfi_offset 3, -56
	subq	$40, %rsp
	.cfi_def_cfa_offset 96
	movq	_ZL28__gthrw___pthread_key_createPjPFvPvE@GOTPCREL(%rip), %r12
	movq	32(%rsi), %r13
	testq	%r12, %r12
	movq	40(%r13), %rbx
	je	.L102
	movq	80(%rbx), %rdi
	call	_ZL26__gthrw_pthread_mutex_lockP15pthread_mutex_t@PLT
	testl	%eax, %eax
	jne	.L103
	movq	40(%r13), %rbx
.L102:
	movq	96(%rbx), %rbp
	cmpq	104(%rbx), %rbp
	movq	88(%rbx), %r14
	je	.L104
	testq	%rbp, %rbp
	je	.L105
	movq	%r15, 0(%rbp)
.L105:
	leaq	8(%rbp), %rax
	movq	%rax, 96(%rbx)
.L106:
	testq	%r12, %r12
	je	.L113
	movq	80(%rbx), %rdi
	call	_ZL28__gthrw_pthread_mutex_unlockP15pthread_mutex_t@PLT
.L113:
	cmpq	%rbp, %r14
	je	.L136
	addq	$40, %rsp
	.cfi_remember_state
	.cfi_def_cfa_offset 56
	popq	%rbx
	.cfi_def_cfa_offset 48
	popq	%rbp
	.cfi_def_cfa_offset 40
	popq	%r12
	.cfi_def_cfa_offset 32
	popq	%r13
	.cfi_def_cfa_offset 24
	popq	%r14
	.cfi_def_cfa_offset 16
	popq	%r15
	.cfi_def_cfa_offset 8
	ret
	.p2align 4,,10
	.p2align 3
.L136:
	.cfi_restore_state
	movq	40(%r13), %rax
	movq	64(%rax), %rdi
	addq	$40, %rsp
	.cfi_remember_state
	.cfi_def_cfa_offset 56
	popq	%rbx
	.cfi_def_cfa_offset 48
	popq	%rbp
	.cfi_def_cfa_offset 40
	popq	%r12
	.cfi_def_cfa_offset 32
	popq	%r13
	.cfi_def_cfa_offset 24
	popq	%r14
	.cfi_def_cfa_offset 16
	popq	%r15
	.cfi_def_cfa_offset 8
	jmp	uv_async_send@PLT
	.p2align 4,,10
	.p2align 3
.L104:
	.cfi_restore_state
	movq	%rbp, %rdx
	subq	%r14, %rdx
	movq	%rdx, %rax
	sarq	$3, %rax
	testq	%rax, %rax
	je	.L115
	leaq	(%rax,%rax), %rcx
	cmpq	%rcx, %rax
	movq	%rcx, 8(%rsp)
	jbe	.L137
.L117:
	movq	$-8, 8(%rsp)
	movq	8(%rsp), %rdi
.L107:
	movq	%rdx, 16(%rsp)
	call	_Znwm@PLT
	movq	16(%rsp), %rdx
	movq	%rax, %rcx
.L108:
	addq	%rcx, %rdx
	je	.L109
	movq	%r15, (%rdx)
.L109:
	movq	88(%rbx), %rsi
	movq	%rbp, %r8
	subq	%rsi, %r8
	cmpq	%rbp, %rsi
	je	.L110
	movq	%r8, %rdx
	movq	%rcx, %rdi
	movq	%r8, 16(%rsp)
	call	memmove@PLT
	movq	16(%rsp), %r8
	movq	%rax, %rcx
.L110:
	movq	96(%rbx), %rax
	leaq	8(%rcx,%r8), %r8
	movq	%rax, %r9
	subq	%rbp, %r9
	cmpq	%rbp, %rax
	je	.L111
	movq	%r9, %rdx
	movq	%r8, %rdi
	movq	%rbp, %rsi
	movq	%rcx, 24(%rsp)
	movq	%r9, 16(%rsp)
	call	memmove@PLT
	movq	24(%rsp), %rcx
	movq	16(%rsp), %r9
	movq	%rax, %r8
.L111:
	movq	88(%rbx), %rdi
	addq	%r9, %r8
	testq	%rdi, %rdi
	je	.L112
	movq	%rcx, 24(%rsp)
	movq	%r8, 16(%rsp)
	call	_ZdlPv@PLT
	movq	24(%rsp), %rcx
	movq	16(%rsp), %r8
.L112:
	movq	8(%rsp), %r15
	movq	%rcx, 88(%rbx)
	movq	%r8, 96(%rbx)
	addq	%rcx, %r15
	movq	%r15, 104(%rbx)
	movq	40(%r13), %rbx
	jmp	.L106
	.p2align 4,,10
	.p2align 3
.L115:
	movq	$8, 8(%rsp)
	movq	8(%rsp), %rdi
	jmp	.L107
	.p2align 4,,10
	.p2align 3
.L137:
	movabsq	$2305843009213693951, %rcx
	cmpq	%rcx, 8(%rsp)
	ja	.L117
	xorl	%ecx, %ecx
	cmpq	$0, 8(%rsp)
	je	.L108
	salq	$4, %rax
	movq	%rax, 8(%rsp)
	movq	%rax, %rdi
	jmp	.L107
.L103:
	movl	%eax, %edi
	call	_ZSt20__throw_system_errori@PLT
	.cfi_endproc
.LFE2929:
	.size	_ZZN2uS6Socket8transferEPNS_8NodeDataEPFvPNS_4PollEEENKUlS4_E_clES4_, .-_ZZN2uS6Socket8transferEPNS_8NodeDataEPFvPNS_4PollEEENKUlS4_E_clES4_
	.section	.text._ZN3uWS9WebSocketILb1EEC2EbPN2uS6SocketE,"axG",@progbits,_ZN3uWS9WebSocketILb1EEC5EbPN2uS6SocketE,comdat
	.align 2
	.p2align 4,,15
	.weak	_ZN3uWS9WebSocketILb1EEC2EbPN2uS6SocketE
	.type	_ZN3uWS9WebSocketILb1EEC2EbPN2uS6SocketE, @function
_ZN3uWS9WebSocketILb1EEC2EbPN2uS6SocketE:
.LFB3928:
	.cfi_startproc
	movq	(%rdx), %rax
	movdqu	48(%rdx), %xmm0
	movq	%rax, (%rdi)
	movq	8(%rdx), %rax
	movq	%rax, 8(%rdi)
	movl	16(%rdx), %eax
	movq	$0, (%rdx)
	movl	%eax, 16(%rdi)
	movq	24(%rdx), %rax
	movq	%rax, 24(%rdi)
	movq	32(%rdx), %rax
	movq	%rax, 32(%rdi)
	movq	40(%rdx), %rax
	movups	%xmm0, 48(%rdi)
	movq	%rax, 40(%rdi)
	movq	64(%rdx), %rax
	movq	%rax, 64(%rdi)
	movq	72(%rdx), %rax
	movb	$-31, 80(%rdi)
	movl	$0, 96(%rdi)
	movq	$0, 112(%rdi)
	movb	$0, 120(%rdi)
	movq	%rax, 72(%rdi)
	leaq	120(%rdi), %rax
	movb	%sil, 136(%rdi)
	movq	%rax, 104(%rdi)
	xorl	%eax, %eax
	movw	%ax, 137(%rdi)
	ret
	.cfi_endproc
.LFE3928:
	.size	_ZN3uWS9WebSocketILb1EEC2EbPN2uS6SocketE, .-_ZN3uWS9WebSocketILb1EEC2EbPN2uS6SocketE
	.weak	_ZN3uWS9WebSocketILb1EEC1EbPN2uS6SocketE
	.set	_ZN3uWS9WebSocketILb1EEC1EbPN2uS6SocketE,_ZN3uWS9WebSocketILb1EEC2EbPN2uS6SocketE
	.section	.text._ZN3uWS9WebSocketILb1EE5onEndEPN2uS6SocketE,"axG",@progbits,_ZN3uWS9WebSocketILb1EE5onEndEPN2uS6SocketE,comdat
	.align 2
	.p2align 4,,15
	.weak	_ZN3uWS9WebSocketILb1EE5onEndEPN2uS6SocketE
	.type	_ZN3uWS9WebSocketILb1EE5onEndEPN2uS6SocketE, @function
_ZN3uWS9WebSocketILb1EE5onEndEPN2uS6SocketE:
.LFB3931:
	.cfi_startproc
	pushq	%r12
	.cfi_def_cfa_offset 16
	.cfi_offset 12, -16
	pushq	%rbp
	.cfi_def_cfa_offset 24
	.cfi_offset 6, -24
	pushq	%rbx
	.cfi_def_cfa_offset 32
	.cfi_offset 3, -32
	movq	%rdi, %rbx
	subq	$48, %rsp
	.cfi_def_cfa_offset 80
	movq	%fs:40, %rax
	movq	%rax, 40(%rsp)
	xorl	%eax, %eax
	testb	$-16, 16(%rdi)
	jne	.L140
	movq	40(%rdi), %rdi
	movq	%rbx, %rsi
	call	_ZN3uWS5GroupILb1EE15removeWebSocketEPNS_9WebSocketILb1EEE@PLT
	movq	40(%rbx), %rax
	movq	%rbx, 16(%rsp)
	movl	$1006, 12(%rsp)
	movq	$0, 24(%rsp)
	movq	$0, 32(%rsp)
	cmpq	$0, 248(%rax)
	je	.L206
	leaq	24(%rsp), %rcx
	leaq	12(%rsp), %rdx
	leaq	16(%rsp), %rsi
	leaq	232(%rax), %rdi
	leaq	32(%rsp), %r8
	call	*256(%rax)
.L142:
	movq	(%rbx), %rdi
	movl	152(%rdi), %ebp
	call	uv_poll_stop@PLT
	movl	%ebp, %edi
	call	close@PLT
	movq	24(%rbx), %rdi
	testq	%rdi, %rdi
	je	.L143
	call	SSL_free@PLT
.L143:
	movq	_ZZN2uS6Socket11closeSocketIN3uWS9WebSocketILb1EEEEEvvENUlPNS_4PollEE_4_FUNES6_@GOTPCREL(%rip), %rax
	movq	_ZZN2uS4Poll5closeEPNS_4LoopEPFvPS0_EENUlP11uv_handle_sE_4_FUNES7_@GOTPCREL(%rip), %rsi
	movq	(%rbx), %rdi
	movq	%rax, 8(%rbx)
	call	uv_close@PLT
	movq	48(%rbx), %rbp
	testq	%rbp, %rbp
	je	.L144
.L207:
	movq	24(%rbp), %rax
	testq	%rax, %rax
	je	.L175
	xorl	%edi, %edi
	movq	32(%rbp), %rsi
	xorl	%ecx, %ecx
	movl	$1, %edx
	call	*%rax
	movq	48(%rbx), %rdi
.L145:
	movq	16(%rdi), %rbp
	testq	%rbp, %rbp
	je	.L146
	call	_ZdaPv@PLT
	testq	%rbp, %rbp
	movq	%rbp, 48(%rbx)
	jne	.L207
	.p2align 4,,10
	.p2align 3
.L144:
	movq	_ZL28__gthrw___pthread_key_createPjPFvPvE@GOTPCREL(%rip), %rbp
	movq	40(%rbx), %r12
	testq	%rbp, %rbp
	movq	80(%r12), %rdi
	je	.L148
	call	_ZL26__gthrw_pthread_mutex_lockP15pthread_mutex_t@PLT
	testl	%eax, %eax
	jne	.L149
	movq	80(%r12), %rdi
.L148:
	movq	120(%r12), %rsi
	movq	112(%r12), %rdx
	movq	%rsi, %rcx
	subq	%rdx, %rcx
	movq	%rcx, %rax
	sarq	$5, %rcx
	sarq	$3, %rax
	testq	%rcx, %rcx
	jle	.L176
	cmpq	(%rdx), %rbx
	je	.L177
	cmpq	%rbx, 8(%rdx)
	leaq	8(%rdx), %rax
	je	.L159
	cmpq	16(%rdx), %rbx
	leaq	16(%rdx), %rax
	je	.L159
	salq	$5, %rcx
	addq	%rdx, %rcx
	cmpq	24(%rdx), %rbx
	jne	.L162
	jmp	.L208
	.p2align 4,,10
	.p2align 3
.L164:
	cmpq	32(%rdx), %rbx
	je	.L159
	cmpq	8(%rax), %rbx
	je	.L209
	cmpq	16(%rax), %rbx
	je	.L210
	cmpq	24(%rax), %rbx
	je	.L211
	movq	%rax, %rdx
.L162:
	leaq	32(%rdx), %rax
	cmpq	%rax, %rcx
	jne	.L164
	movq	%rsi, %rax
	subq	%rcx, %rax
	sarq	$3, %rax
.L150:
	cmpq	$2, %rax
	je	.L166
	cmpq	$3, %rax
	je	.L167
	cmpq	$1, %rax
	jne	.L165
.L168:
	cmpq	(%rcx), %rbx
	jne	.L165
.L181:
	movq	%rcx, %rax
	.p2align 4,,10
	.p2align 3
.L159:
	cmpq	%rax, %rsi
	je	.L165
	leaq	8(%rax), %rdx
	cmpq	%rdx, %rsi
	je	.L170
	movq	%rsi, %r8
	.p2align 4,,10
	.p2align 3
.L172:
	movq	(%rdx), %rcx
	cmpq	%rcx, %rbx
	je	.L171
	movq	%rcx, (%rax)
	addq	$8, %rax
.L171:
	addq	$8, %rdx
	cmpq	%rdx, %r8
	jne	.L172
	cmpq	%rax, %rsi
	je	.L165
.L170:
	movq	%rax, 120(%r12)
.L165:
	testq	%rbp, %rbp
	je	.L139
	call	_ZL28__gthrw_pthread_mutex_unlockP15pthread_mutex_t@PLT
.L139:
	movq	40(%rsp), %rax
	xorq	%fs:40, %rax
	jne	.L212
	addq	$48, %rsp
	.cfi_remember_state
	.cfi_def_cfa_offset 32
	popq	%rbx
	.cfi_def_cfa_offset 24
	popq	%rbp
	.cfi_def_cfa_offset 16
	popq	%r12
	.cfi_def_cfa_offset 8
	ret
	.p2align 4,,10
	.p2align 3
.L146:
	.cfi_restore_state
	call	_ZdaPv@PLT
	movq	$0, 56(%rbx)
	movq	$0, 48(%rbx)
	jmp	.L144
	.p2align 4,,10
	.p2align 3
.L140:
	movq	32(%rdi), %rbp
	testq	%rbp, %rbp
	je	.L142
	movq	%rbp, %rdi
	call	uv_timer_stop@PLT
	movq	_ZZN2uS5Timer5closeEvENUlP11uv_handle_sE_4_FUNES2_@GOTPCREL(%rip), %rsi
	movq	%rbp, %rdi
	call	uv_close@PLT
	movq	$0, 32(%rbx)
	jmp	.L142
	.p2align 4,,10
	.p2align 3
.L175:
	movq	%rbp, %rdi
	jmp	.L145
	.p2align 4,,10
	.p2align 3
.L209:
	leaq	40(%rdx), %rax
	jmp	.L159
	.p2align 4,,10
	.p2align 3
.L210:
	leaq	48(%rdx), %rax
	jmp	.L159
	.p2align 4,,10
	.p2align 3
.L211:
	leaq	56(%rdx), %rax
	jmp	.L159
.L167:
	cmpq	(%rcx), %rbx
	je	.L181
	addq	$8, %rcx
.L166:
	cmpq	(%rcx), %rbx
	je	.L181
	addq	$8, %rcx
	jmp	.L168
.L176:
	movq	%rdx, %rcx
	jmp	.L150
.L177:
	movq	%rdx, %rax
	jmp	.L159
.L208:
	leaq	24(%rdx), %rax
	jmp	.L159
.L212:
	call	__stack_chk_fail@PLT
.L149:
	movl	%eax, %edi
	call	_ZSt20__throw_system_errori@PLT
.L206:
	call	_ZSt25__throw_bad_function_callv@PLT
	.cfi_endproc
.LFE3931:
	.size	_ZN3uWS9WebSocketILb1EE5onEndEPN2uS6SocketE, .-_ZN3uWS9WebSocketILb1EE5onEndEPN2uS6SocketE
	.section	.text._ZZN2uS6Socket12startTimeoutIXadL_ZN3uWS9WebSocketILb1EE5onEndEPS0_EEEEviENUlPNS_5TimerEE_4_FUNES7_,"axG",@progbits,_ZZN2uS6Socket12startTimeoutIXadL_ZN3uWS9WebSocketILb1EE5onEndEPS0_EEEEviENKUlPNS_5TimerEE_clES7_,comdat
	.p2align 4,,15
	.weak	_ZZN2uS6Socket12startTimeoutIXadL_ZN3uWS9WebSocketILb1EE5onEndEPS0_EEEEviENUlPNS_5TimerEE_4_FUNES7_
	.type	_ZZN2uS6Socket12startTimeoutIXadL_ZN3uWS9WebSocketILb1EE5onEndEPS0_EEEEviENUlPNS_5TimerEE_4_FUNES7_, @function
_ZZN2uS6Socket12startTimeoutIXadL_ZN3uWS9WebSocketILb1EE5onEndEPS0_EEEEviENUlPNS_5TimerEE_4_FUNES7_:
.LFB4121:
	.cfi_startproc
	pushq	%rbp
	.cfi_def_cfa_offset 16
	.cfi_offset 6, -16
	pushq	%rbx
	.cfi_def_cfa_offset 24
	.cfi_offset 3, -24
	subq	$8, %rsp
	.cfi_def_cfa_offset 32
	movq	(%rdi), %rbx
	movq	32(%rbx), %rbp
	testq	%rbp, %rbp
	je	.L214
	movq	%rbp, %rdi
	call	uv_timer_stop@PLT
	movq	_ZZN2uS5Timer5closeEvENUlP11uv_handle_sE_4_FUNES2_@GOTPCREL(%rip), %rsi
	movq	%rbp, %rdi
	call	uv_close@PLT
	movq	$0, 32(%rbx)
.L214:
	addq	$8, %rsp
	.cfi_def_cfa_offset 24
	movq	%rbx, %rdi
	popq	%rbx
	.cfi_def_cfa_offset 16
	popq	%rbp
	.cfi_def_cfa_offset 8
	jmp	_ZN3uWS9WebSocketILb1EE5onEndEPN2uS6SocketE@PLT
	.cfi_endproc
.LFE4121:
	.size	_ZZN2uS6Socket12startTimeoutIXadL_ZN3uWS9WebSocketILb1EE5onEndEPS0_EEEEviENUlPNS_5TimerEE_4_FUNES7_, .-_ZZN2uS6Socket12startTimeoutIXadL_ZN3uWS9WebSocketILb1EE5onEndEPS0_EEEEviENUlPNS_5TimerEE_4_FUNES7_
	.section	.text._ZN3uWS9WebSocketILb1EE19refusePayloadLengthEmPNS_14WebSocketStateILb1EEE,"axG",@progbits,_ZN3uWS9WebSocketILb1EE19refusePayloadLengthEmPNS_14WebSocketStateILb1EEE,comdat
	.p2align 4,,15
	.weak	_ZN3uWS9WebSocketILb1EE19refusePayloadLengthEmPNS_14WebSocketStateILb1EEE
	.type	_ZN3uWS9WebSocketILb1EE19refusePayloadLengthEmPNS_14WebSocketStateILb1EEE, @function
_ZN3uWS9WebSocketILb1EE19refusePayloadLengthEmPNS_14WebSocketStateILb1EEE:
.LFB3932:
	.cfi_startproc
	testq	%rsi, %rsi
	je	.L223
	movq	-40(%rsi), %rax
	movl	552(%rax), %eax
	cmpq	%rdi, %rax
	setb	%al
	ret
	.p2align 4,,10
	.p2align 3
.L223:
	movq	40, %rax
	ud2
	.cfi_endproc
.LFE3932:
	.size	_ZN3uWS9WebSocketILb1EE19refusePayloadLengthEmPNS_14WebSocketStateILb1EEE, .-_ZN3uWS9WebSocketILb1EE19refusePayloadLengthEmPNS_14WebSocketStateILb1EEE
	.section	.text._ZN3uWS9WebSocketILb1EE13setCompressedEPNS_14WebSocketStateILb1EEE,"axG",@progbits,_ZN3uWS9WebSocketILb1EE13setCompressedEPNS_14WebSocketStateILb1EEE,comdat
	.p2align 4,,15
	.weak	_ZN3uWS9WebSocketILb1EE13setCompressedEPNS_14WebSocketStateILb1EEE
	.type	_ZN3uWS9WebSocketILb1EE13setCompressedEPNS_14WebSocketStateILb1EEE, @function
_ZN3uWS9WebSocketILb1EE13setCompressedEPNS_14WebSocketStateILb1EEE:
.LFB3933:
	.cfi_startproc
	testq	%rdi, %rdi
	je	.L225
	xorl	%eax, %eax
	cmpb	$1, 56(%rdi)
	je	.L228
	rep ret
	.p2align 4,,10
	.p2align 3
.L225:
	movzbl	136, %eax
	ud2
	.p2align 4,,10
	.p2align 3
.L228:
	movb	$2, 56(%rdi)
	movl	$1, %eax
	ret
	.cfi_endproc
.LFE3933:
	.size	_ZN3uWS9WebSocketILb1EE13setCompressedEPNS_14WebSocketStateILb1EEE, .-_ZN3uWS9WebSocketILb1EE13setCompressedEPNS_14WebSocketStateILb1EEE
	.section	.text._ZN3uWS9WebSocketILb1EE12sendPreparedEPNS1_15PreparedMessageEPv,"axG",@progbits,_ZN3uWS9WebSocketILb1EE12sendPreparedEPNS1_15PreparedMessageEPv,comdat
	.align 2
	.p2align 4,,15
	.weak	_ZN3uWS9WebSocketILb1EE12sendPreparedEPNS1_15PreparedMessageEPv
	.type	_ZN3uWS9WebSocketILb1EE12sendPreparedEPNS1_15PreparedMessageEPv, @function
_ZN3uWS9WebSocketILb1EE12sendPreparedEPNS1_15PreparedMessageEPv:
.LFB3936:
	.cfi_startproc
	pushq	%r15
	.cfi_def_cfa_offset 16
	.cfi_offset 15, -16
	pushq	%r14
	.cfi_def_cfa_offset 24
	.cfi_offset 14, -24
	pushq	%r13
	.cfi_def_cfa_offset 32
	.cfi_offset 13, -32
	pushq	%r12
	.cfi_def_cfa_offset 40
	.cfi_offset 12, -40
	movq	%rdx, %r13
	pushq	%rbp
	.cfi_def_cfa_offset 48
	.cfi_offset 6, -48
	pushq	%rbx
	.cfi_def_cfa_offset 56
	.cfi_offset 3, -56
	movq	%rdi, %r12
	movq	%rsi, %rbp
	subq	$40, %rsp
	.cfi_def_cfa_offset 96
	movq	40(%rdi), %rax
	addl	$1, 16(%rsi)
	movq	48(%rax), %rax
	movq	24(%rax), %rbx
	testq	%rbx, %rbx
	je	.L230
	movq	$0, 24(%rax)
.L231:
	cmpq	$0, 48(%r12)
	movq	0(%rbp), %rsi
	movq	8(%rbp), %rdx
	movq	%rsi, (%rbx)
	movq	%rdx, 8(%rbx)
	je	.L345
.L233:
	movq	56(%r12), %rax
	movq	$0, 16(%rbx)
	testq	%rax, %rax
	je	.L267
	movq	%rbx, 16(%rax)
	movq	%rbx, 56(%r12)
.L268:
	movq	_ZZN3uWS9WebSocketILb1EE12sendPreparedEPNS1_15PreparedMessageEPvENUlS4_S4_bS4_E_4_FUNES4_S4_bS4_@GOTPCREL(%rip), %rax
	movq	%rbp, 32(%rbx)
	movq	%r13, 40(%rbx)
	movq	%rax, 24(%rbx)
.L229:
	addq	$40, %rsp
	.cfi_remember_state
	.cfi_def_cfa_offset 56
	popq	%rbx
	.cfi_def_cfa_offset 48
	popq	%rbp
	.cfi_def_cfa_offset 40
	popq	%r12
	.cfi_def_cfa_offset 32
	popq	%r13
	.cfi_def_cfa_offset 24
	popq	%r14
	.cfi_def_cfa_offset 16
	popq	%r15
	.cfi_def_cfa_offset 8
	ret
	.p2align 4,,10
	.p2align 3
.L345:
	.cfi_restore_state
	movq	24(%r12), %rdi
	testq	%rdi, %rdi
	je	.L234
	call	SSL_write@PLT
	movslq	%eax, %rdx
	cmpq	8(%rbx), %rdx
	je	.L235
	testq	%rdx, %rdx
	jns	.L233
	movq	24(%r12), %rdi
	movl	%eax, %esi
	call	SSL_get_error@PLT
	cmpl	$2, %eax
	je	.L233
	cmpl	$3, %eax
	jne	.L237
	movzbl	16(%r12), %edx
	movl	%edx, %eax
	sall	$4, %eax
	sarb	$4, %al
	testb	$2, %al
	jne	.L233
	orl	$2, %eax
	andl	$-16, %edx
	movq	40(%r12), %r15
	movl	%eax, %r14d
	andl	$15, %eax
	orl	%eax, %edx
	movb	%dl, 16(%r12)
	call	pthread_self@PLT
	cmpq	%rax, 72(%r15)
	je	.L253
	movq	_ZL28__gthrw___pthread_key_createPjPFvPvE@GOTPCREL(%rip), %rcx
	testq	%rcx, %rcx
	je	.L240
	movq	80(%r15), %rdi
	movq	%rcx, (%rsp)
	call	_ZL26__gthrw_pthread_mutex_lockP15pthread_mutex_t@PLT
	testl	%eax, %eax
	jne	.L255
	movq	40(%r12), %r15
	movq	(%rsp), %rcx
.L240:
	movq	120(%r15), %r14
	cmpq	128(%r15), %r14
	jne	.L344
	movq	%r14, %rdx
	subq	112(%r15), %rdx
	movq	%rdx, %rax
	sarq	$3, %rax
	testq	%rax, %rax
	je	.L283
	leaq	(%rax,%rax), %r8
	cmpq	%r8, %rax
	jbe	.L346
	movabsq	$2305843009213693951, %r8
.L245:
	leaq	0(,%r8,8), %rdi
	movq	%rcx, 16(%rsp)
	movq	%rdx, 8(%rsp)
	movq	%r8, (%rsp)
	call	_Znwm@PLT
	movq	(%rsp), %r8
	movq	8(%rsp), %rdx
	movq	%rax, %r9
	movq	16(%rsp), %rcx
.L281:
	addq	%r9, %rdx
	je	.L246
	movq	%r12, (%rdx)
.L246:
	movq	112(%r15), %rsi
	movq	%r14, %r10
	subq	%rsi, %r10
	cmpq	%r14, %rsi
	je	.L247
	movq	%r10, %rdx
	movq	%r9, %rdi
	movq	%rcx, 16(%rsp)
	movq	%r8, 8(%rsp)
	movq	%r10, (%rsp)
	call	memmove@PLT
	movq	16(%rsp), %rcx
	movq	8(%rsp), %r8
	movq	%rax, %r9
	movq	(%rsp), %r10
.L247:
	movq	120(%r15), %rax
	leaq	8(%r9,%r10), %r11
	movq	%rax, %r10
	subq	%r14, %r10
	cmpq	%r14, %rax
	je	.L248
	movq	%r10, %rdx
	movq	%r11, %rdi
	movq	%r14, %rsi
	movq	%rcx, 24(%rsp)
	movq	%r9, 16(%rsp)
	movq	%r8, 8(%rsp)
	movq	%r10, (%rsp)
	call	memmove@PLT
	movq	24(%rsp), %rcx
	movq	16(%rsp), %r9
	movq	%rax, %r11
	movq	8(%rsp), %r8
	movq	(%rsp), %r10
.L248:
	movq	112(%r15), %rdi
	leaq	(%r11,%r10), %r14
	testq	%rdi, %rdi
	je	.L249
	movq	%rcx, 16(%rsp)
	movq	%r9, 8(%rsp)
	movq	%r8, (%rsp)
	call	_ZdlPv@PLT
	movq	16(%rsp), %rcx
	movq	8(%rsp), %r9
	movq	(%rsp), %r8
.L249:
	leaq	(%r9,%r8,8), %rax
	movq	%r9, 112(%r15)
	movq	%r14, 120(%r15)
	movq	%rax, 128(%r15)
	movq	40(%r12), %r15
	jmp	.L258
	.p2align 4,,10
	.p2align 3
.L235:
	movq	40(%r12), %rax
	movq	48(%rax), %rax
	cmpq	$0, 24(%rax)
	je	.L347
	movq	%rbx, %rdi
	call	_ZdaPv@PLT
.L270:
	movl	16(%rbp), %eax
	leal	-1(%rax), %ebx
	movq	24(%rbp), %rax
	testl	%ebx, %ebx
	movl	%ebx, 16(%rbp)
	sete	%cl
	testq	%rax, %rax
	je	.L271
	movzbl	%cl, %ecx
	xorl	%edx, %edx
	movq	%r13, %rsi
	movq	%r12, %rdi
	call	*%rax
.L271:
	testl	%ebx, %ebx
	jne	.L229
	movq	0(%rbp), %rdi
	testq	%rdi, %rdi
	je	.L275
	call	_ZdaPv@PLT
.L275:
	addq	$40, %rsp
	.cfi_remember_state
	.cfi_def_cfa_offset 56
	movq	%rbp, %rdi
	popq	%rbx
	.cfi_def_cfa_offset 48
	popq	%rbp
	.cfi_def_cfa_offset 40
	popq	%r12
	.cfi_def_cfa_offset 32
	popq	%r13
	.cfi_def_cfa_offset 24
	popq	%r14
	.cfi_def_cfa_offset 16
	popq	%r15
	.cfi_def_cfa_offset 8
	jmp	_ZdlPv@PLT
	.p2align 4,,10
	.p2align 3
.L267:
	.cfi_restore_state
	movq	%rbx, 48(%r12)
	movq	%rbx, 56(%r12)
	jmp	.L268
	.p2align 4,,10
	.p2align 3
.L347:
	movq	%rbx, 24(%rax)
	jmp	.L270
	.p2align 4,,10
	.p2align 3
.L230:
	movl	$48, %edi
	call	_Znam@PLT
	movq	%rax, %rbx
	jmp	.L231
	.p2align 4,,10
	.p2align 3
.L234:
	movq	(%r12), %rax
	movl	$16384, %ecx
	movl	152(%rax), %edi
	call	send@PLT
	movq	8(%rbx), %rdx
	cmpq	%rdx, %rax
	je	.L235
	cmpq	$-1, %rax
	je	.L348
	addq	%rax, (%rbx)
	subq	%rax, %rdx
	movq	%rdx, 8(%rbx)
.L252:
	movzbl	16(%r12), %edx
	movl	%edx, %eax
	sall	$4, %eax
	sarb	$4, %al
	testb	$2, %al
	jne	.L233
	orl	$2, %eax
	andl	$-16, %edx
	movq	40(%r12), %r15
	movl	%eax, %r14d
	andl	$15, %eax
	orl	%eax, %edx
	movb	%dl, 16(%r12)
	call	pthread_self@PLT
	cmpq	%rax, 72(%r15)
	je	.L253
	movq	_ZL28__gthrw___pthread_key_createPjPFvPvE@GOTPCREL(%rip), %rcx
	testq	%rcx, %rcx
	je	.L254
	movq	80(%r15), %rdi
	movq	%rcx, (%rsp)
	call	_ZL26__gthrw_pthread_mutex_lockP15pthread_mutex_t@PLT
	testl	%eax, %eax
	jne	.L255
	movq	40(%r12), %r15
	movq	(%rsp), %rcx
.L254:
	movq	120(%r15), %r14
	cmpq	128(%r15), %r14
	je	.L256
.L344:
	testq	%r14, %r14
	je	.L257
	movq	%r12, (%r14)
.L257:
	addq	$8, %r14
	movq	%r14, 120(%r15)
.L258:
	testq	%rcx, %rcx
	je	.L266
	movq	80(%r15), %rdi
	call	_ZL28__gthrw_pthread_mutex_unlockP15pthread_mutex_t@PLT
	movq	40(%r12), %r15
.L266:
	movq	64(%r15), %rdi
	call	uv_async_send@PLT
	jmp	.L233
	.p2align 4,,10
	.p2align 3
.L348:
	call	__errno_location@PLT
	cmpl	$11, (%rax)
	je	.L252
.L237:
	movq	40(%r12), %rax
	movq	48(%rax), %rax
	cmpq	$0, 24(%rax)
	je	.L349
	movq	%rbx, %rdi
	call	_ZdaPv@PLT
.L277:
	movl	16(%rbp), %eax
	leal	-1(%rax), %ebx
	movq	24(%rbp), %rax
	testl	%ebx, %ebx
	movl	%ebx, 16(%rbp)
	sete	%cl
	testq	%rax, %rax
	je	.L271
	movzbl	%cl, %ecx
	movl	$1, %edx
	movq	%r13, %rsi
	movq	%r12, %rdi
	call	*%rax
	jmp	.L271
	.p2align 4,,10
	.p2align 3
.L349:
	movq	%rbx, 24(%rax)
	jmp	.L277
.L253:
	movq	(%r12), %rdi
	movq	_ZZN2uS4Poll5startEPNS_4LoopEPS0_iENUlP9uv_poll_siiE_4_FUNES5_ii@GOTPCREL(%rip), %rdx
	movsbl	%r14b, %esi
	movq	%r12, (%rdi)
	call	uv_poll_start@PLT
	jmp	.L233
.L256:
	movq	%r14, %rdx
	subq	112(%r15), %rdx
	movq	%rdx, %rax
	sarq	$3, %rax
	testq	%rax, %rax
	jne	.L350
	movl	$8, %r8d
.L259:
	movq	%r8, %rdi
	movq	%rcx, 16(%rsp)
	movq	%rdx, 8(%rsp)
	movq	%r8, (%rsp)
	call	_Znwm@PLT
	movq	16(%rsp), %rcx
	movq	8(%rsp), %rdx
	movq	%rax, %r9
	movq	(%rsp), %r8
.L261:
	addq	%r9, %rdx
	je	.L262
	movq	%r12, (%rdx)
.L262:
	movq	112(%r15), %rsi
	movq	%r14, %r10
	subq	%rsi, %r10
	cmpq	%r14, %rsi
	je	.L263
	movq	%r10, %rdx
	movq	%r9, %rdi
	movq	%rcx, 16(%rsp)
	movq	%r8, 8(%rsp)
	movq	%r10, (%rsp)
	call	memmove@PLT
	movq	16(%rsp), %rcx
	movq	8(%rsp), %r8
	movq	%rax, %r9
	movq	(%rsp), %r10
.L263:
	movq	120(%r15), %rax
	leaq	8(%r9,%r10), %r11
	movq	%rax, %r10
	subq	%r14, %r10
	cmpq	%r14, %rax
	je	.L264
	movq	%r10, %rdx
	movq	%r11, %rdi
	movq	%r14, %rsi
	movq	%rcx, 24(%rsp)
	movq	%r9, 16(%rsp)
	movq	%r8, 8(%rsp)
	movq	%r10, (%rsp)
	call	memmove@PLT
	movq	24(%rsp), %rcx
	movq	16(%rsp), %r9
	movq	%rax, %r11
	movq	8(%rsp), %r8
	movq	(%rsp), %r10
.L264:
	movq	112(%r15), %rdi
	leaq	(%r11,%r10), %r14
	testq	%rdi, %rdi
	je	.L265
	movq	%rcx, 16(%rsp)
	movq	%r9, 8(%rsp)
	movq	%r8, (%rsp)
	call	_ZdlPv@PLT
	movq	16(%rsp), %rcx
	movq	8(%rsp), %r9
	movq	(%rsp), %r8
.L265:
	addq	%r9, %r8
	movq	%r9, 112(%r15)
	movq	%r14, 120(%r15)
	movq	%r8, 128(%r15)
	movq	40(%r12), %r15
	jmp	.L258
.L350:
	leaq	(%rax,%rax), %r8
	cmpq	%r8, %rax
	jbe	.L351
.L289:
	movq	$-8, %r8
	jmp	.L259
.L351:
	movabsq	$2305843009213693951, %rsi
	cmpq	%rsi, %r8
	ja	.L289
	xorl	%r9d, %r9d
	testq	%r8, %r8
	je	.L261
	salq	$4, %rax
	movq	%rax, %r8
	jmp	.L259
.L283:
	movl	$1, %r8d
	jmp	.L245
.L346:
	movabsq	$2305843009213693951, %rax
	cmpq	%rax, %r8
	jbe	.L352
	movq	%rax, %r8
	jmp	.L245
.L255:
	movl	%eax, %edi
	call	_ZSt20__throw_system_errori@PLT
.L352:
	testq	%r8, %r8
	jne	.L245
	xorl	%r9d, %r9d
	jmp	.L281
	.cfi_endproc
.LFE3936:
	.size	_ZN3uWS9WebSocketILb1EE12sendPreparedEPNS1_15PreparedMessageEPv, .-_ZN3uWS9WebSocketILb1EE12sendPreparedEPNS1_15PreparedMessageEPv
	.section	.text._ZN3uWS9WebSocketILb1EE15finalizeMessageEPNS1_15PreparedMessageE,"axG",@progbits,_ZN3uWS9WebSocketILb1EE15finalizeMessageEPNS1_15PreparedMessageE,comdat
	.align 2
	.p2align 4,,15
	.weak	_ZN3uWS9WebSocketILb1EE15finalizeMessageEPNS1_15PreparedMessageE
	.type	_ZN3uWS9WebSocketILb1EE15finalizeMessageEPNS1_15PreparedMessageE, @function
_ZN3uWS9WebSocketILb1EE15finalizeMessageEPNS1_15PreparedMessageE:
.LFB3940:
	.cfi_startproc
	subl	$1, 16(%rdi)
	jne	.L353
	pushq	%rbx
	.cfi_def_cfa_offset 16
	.cfi_offset 3, -16
	movq	%rdi, %rbx
	movq	(%rdi), %rdi
	testq	%rdi, %rdi
	je	.L355
	call	_ZdaPv@PLT
.L355:
	movq	%rbx, %rdi
	popq	%rbx
	.cfi_restore 3
	.cfi_def_cfa_offset 8
	jmp	_ZdlPv@PLT
	.p2align 4,,10
	.p2align 3
.L353:
	rep ret
	.cfi_endproc
.LFE3940:
	.size	_ZN3uWS9WebSocketILb1EE15finalizeMessageEPNS1_15PreparedMessageE, .-_ZN3uWS9WebSocketILb1EE15finalizeMessageEPNS1_15PreparedMessageE
	.section	.text._ZN3uWS9WebSocketILb1EE8transferEPNS_5GroupILb1EEE,"axG",@progbits,_ZN3uWS9WebSocketILb1EE8transferEPNS_5GroupILb1EEE,comdat
	.align 2
	.p2align 4,,15
	.weak	_ZN3uWS9WebSocketILb1EE8transferEPNS_5GroupILb1EEE
	.type	_ZN3uWS9WebSocketILb1EE8transferEPNS_5GroupILb1EEE, @function
_ZN3uWS9WebSocketILb1EE8transferEPNS_5GroupILb1EEE:
.LFB3945:
	.cfi_startproc
	pushq	%r15
	.cfi_def_cfa_offset 16
	.cfi_offset 15, -16
	pushq	%r14
	.cfi_def_cfa_offset 24
	.cfi_offset 14, -24
	pushq	%r13
	.cfi_def_cfa_offset 32
	.cfi_offset 13, -32
	pushq	%r12
	.cfi_def_cfa_offset 40
	.cfi_offset 12, -40
	movq	%rsi, %r12
	pushq	%rbp
	.cfi_def_cfa_offset 48
	.cfi_offset 6, -48
	pushq	%rbx
	.cfi_def_cfa_offset 56
	.cfi_offset 3, -56
	movq	%rdi, %rbx
	movq	%rbx, %rsi
	subq	$24, %rsp
	.cfi_def_cfa_offset 80
	movq	40(%rdi), %rdi
	movq	%fs:40, %rax
	movq	%rax, 8(%rsp)
	xorl	%eax, %eax
	call	_ZN3uWS5GroupILb1EE15removeWebSocketEPNS_9WebSocketILb1EEE@PLT
	movq	40(%rbx), %rax
	movq	24(%rax), %rax
	cmpq	%rax, 24(%r12)
	je	.L368
	movq	(%rbx), %rax
	movzbl	16(%rbx), %ebp
	movl	$56, %edi
	movq	8